target datalayout = "e-m:e-p270:32:32-p271:32:32-p272:64:64-i64:64-i128:128-f80:128-n8:16:32:64-S128"
target triple = "x86_64-pc-linux-gnu"

%"class.std::basic_string_view" = type { i64, ptr }
%"class.grpc_core::chttp2::TransportFlowControl" = type { ptr, i64, i8, %"class.grpc_core::BdpEstimator", i64, i64, i64, i64, i64, i32, i32 }
%"class.grpc_core::BdpEstimator" = type { i64, i64, %struct.gpr_timespec, %"class.grpc_core::Duration", i32, i32, double, %"class.std::basic_string_view" }
%struct.gpr_timespec = type { i64, i32, i32 }
%"class.grpc_core::Duration" = type { i64 }

; Function Attrs: mustprogress uwtable
define void @_ZN9grpc_core6chttp220TransportFlowControlC2ESt17basic_string_viewIcSt11char_traitsIcEEbPNS_11MemoryOwnerE(ptr noundef nonnull align 8 dereferenceable(144) %0, i64 %1, ptr %2, i1 noundef zeroext %3, ptr noundef %4) unnamed_addr #4 align 2 {
  %6 = alloca %"class.std::basic_string_view", align 8
  %7 = alloca ptr, align 8
  %8 = alloca i8, align 1
  %9 = alloca ptr, align 8
  %10 = alloca %"class.std::basic_string_view", align 8
  %11 = getelementptr inbounds nuw { i64, ptr }, ptr %6, i32 0, i32 0
  store i64 %1, ptr %11, align 8
  %12 = getelementptr inbounds nuw { i64, ptr }, ptr %6, i32 0, i32 1
  store ptr %2, ptr %12, align 8
  store ptr %0, ptr %7, align 8, !tbaa !44
  %13 = zext i1 %3 to i8
  store i8 %13, ptr %8, align 1, !tbaa !46
  store ptr %4, ptr %9, align 8, !tbaa !48
  %14 = load ptr, ptr %7, align 8
  %15 = getelementptr inbounds nuw %"class.grpc_core::chttp2::TransportFlowControl", ptr %14, i32 0, i32 0
  %16 = load ptr, ptr %9, align 8, !tbaa !48
  store ptr %16, ptr %15, align 8, !tbaa !50
  %17 = getelementptr inbounds nuw %"class.grpc_core::chttp2::TransportFlowControl", ptr %14, i32 0, i32 1
  store i64 0, ptr %17, align 8, !tbaa !58
  %18 = getelementptr inbounds nuw %"class.grpc_core::chttp2::TransportFlowControl", ptr %14, i32 0, i32 2
  %19 = load i8, ptr %8, align 1, !tbaa !46, !range !59, !noundef !60
  %20 = trunc i8 %19 to i1
  %21 = zext i1 %20 to i8
  store i8 %21, ptr %18, align 8, !tbaa !61
  %22 = getelementptr inbounds nuw %"class.grpc_core::chttp2::TransportFlowControl", ptr %14, i32 0, i32 3
  call void @llvm.memcpy.p0.p0.i64(ptr align 8 %10, ptr align 8 %6, i64 16, i1 false), !tbaa.struct !33
  %23 = getelementptr inbounds nuw { i64, ptr }, ptr %10, i32 0, i32 0
  %24 = load i64, ptr %23, align 8
  %25 = getelementptr inbounds nuw { i64, ptr }, ptr %10, i32 0, i32 1
  %26 = load ptr, ptr %25, align 8
  call void @_ZN9grpc_core12BdpEstimatorC1ESt17basic_string_viewIcSt11char_traitsIcEE(ptr noundef nonnull align 8 dereferenceable(72) %22, i64 %24, ptr %26)
  %27 = getelementptr inbounds nuw %"class.grpc_core::chttp2::TransportFlowControl", ptr %14, i32 0, i32 4
  store i64 65535, ptr %27, align 8, !tbaa !62
  %28 = getelementptr inbounds nuw %"class.grpc_core::chttp2::TransportFlowControl", ptr %14, i32 0, i32 5
  store i64 65535, ptr %28, align 8, !tbaa !63
  %29 = getelementptr inbounds nuw %"class.grpc_core::chttp2::TransportFlowControl", ptr %14, i32 0, i32 6
  store i64 16384, ptr %29, align 8, !tbaa !64
  %30 = getelementptr inbounds nuw %"class.grpc_core::chttp2::TransportFlowControl", ptr %14, i32 0, i32 7
  store i64 2147483647, ptr %30, align 8, !tbaa !65
  %31 = getelementptr inbounds nuw %"class.grpc_core::chttp2::TransportFlowControl", ptr %14, i32 0, i32 8
  store i64 65535, ptr %31, align 8, !tbaa !66
  %32 = getelementptr inbounds nuw %"class.grpc_core::chttp2::TransportFlowControl", ptr %14, i32 0, i32 9
  store i32 65535, ptr %32, align 8, !tbaa !67
  %33 = getelementptr inbounds nuw %"class.grpc_core::chttp2::TransportFlowControl", ptr %14, i32 0, i32 10
  store i32 65535, ptr %33, align 4, !tbaa !68
  ret void
}