; Function Attrs: mustprogress uwtable
define void @_ZN9grpc_core6chttp220TransportFlowControlC2ESt17basic_string_viewIcSt11char_traitsIcEEbPNS_11MemoryOwnerE(ptr noundef nonnull align 8 dereferenceable(144) initializes((0, 17)) %0, i64 %1, ptr %2, i1 noundef zeroext %3, ptr noundef %4) unnamed_addr #3 align 2 {
  %6 = zext i1 %3 to i8
  store ptr %4, ptr %0, align 8, !tbaa !48
  %7 = getelementptr inbounds nuw i8, ptr %0, i64 8
  store i64 0, ptr %7, align 8, !tbaa !58
  %8 = getelementptr inbounds nuw i8, ptr %0, i64 16
  store i8 %6, ptr %8, align 8, !tbaa !59
  %9 = getelementptr inbounds nuw i8, ptr %0, i64 24
  tail call void @_ZN9grpc_core12BdpEstimatorC1ESt17basic_string_viewIcSt11char_traitsIcEE(ptr noundef nonnull align 8 dereferenceable(72) %9, i64 %1, ptr %2)
  %10 = getelementptr inbounds nuw i8, ptr %0, i64 96
  store i64 65535, ptr %10, align 8, !tbaa !60
  %11 = getelementptr inbounds nuw i8, ptr %0, i64 104
  store i64 65535, ptr %11, align 8, !tbaa !61
  %12 = getelementptr inbounds nuw i8, ptr %0, i64 112
  store i64 16384, ptr %12, align 8, !tbaa !62
  %13 = getelementptr inbounds nuw i8, ptr %0, i64 120
  store i64 2147483647, ptr %13, align 8, !tbaa !63
  %14 = getelementptr inbounds nuw i8, ptr %0, i64 128
  store i64 65535, ptr %14, align 8, !tbaa !64
  %15 = getelementptr inbounds nuw i8, ptr %0, i64 136
  store i32 65535, ptr %15, align 8, !tbaa !65
  %16 = getelementptr inbounds nuw i8, ptr %0, i64 140
  store i32 65535, ptr %16, align 4, !tbaa !66
  ret void
}